target datalayout = "e-m:e-p270:32:32-p271:32:32-p272:64:64-i64:64-i128:128-f80:128-n8:16:32:64-S128"
target triple = "x86_64-pc-linux-gnu"

; Function Attrs: nounwind uwtable
define hidden i32 @luaO_str2d(ptr noundef %0, ptr noundef %1) #0 {
  %3 = alloca i32, align 4
  %4 = alloca ptr, align 8
  %5 = alloca ptr, align 8
  %6 = alloca ptr, align 8
  %7 = alloca i32, align 4
  store ptr %0, ptr %4, align 8, !tbaa !17
  store ptr %1, ptr %5, align 8, !tbaa !19
  call void @llvm.lifetime.start.p0(i64 8, ptr %6) #7
  %8 = load ptr, ptr %4, align 8, !tbaa !17
  %9 = call double @strtod(ptr noundef %8, ptr noundef %6) #7
  %10 = load ptr, ptr %5, align 8, !tbaa !19
  store double %9, ptr %10, align 8, !tbaa !21
  %11 = load ptr, ptr %6, align 8, !tbaa !17
  %12 = load ptr, ptr %4, align 8, !tbaa !17
  %13 = icmp eq ptr %11, %12
  br i1 %13, label %14, label %15

14:                                               ; preds = %2
  store i32 0, ptr %3, align 4
  store i32 1, ptr %7, align 4
  br label %59

15:                                               ; preds = %2
  %16 = load ptr, ptr %6, align 8, !tbaa !17
  %17 = load i8, ptr %16, align 1, !tbaa !11
  %18 = sext i8 %17 to i32
  %19 = icmp eq i32 %18, 120
  br i1 %19, label %25, label %20

20:                                               ; preds = %15
  %21 = load ptr, ptr %6, align 8, !tbaa !17
  %22 = load i8, ptr %21, align 1, !tbaa !11
  %23 = sext i8 %22 to i32
  %24 = icmp eq i32 %23, 88
  br i1 %24, label %25, label %30

25:                                               ; preds = %20, %15
  %26 = load ptr, ptr %4, align 8, !tbaa !17
  %27 = call i64 @strtoul(ptr noundef %26, ptr noundef %6, i32 noundef 16) #7
  %28 = uitofp i64 %27 to double
  %29 = load ptr, ptr %5, align 8, !tbaa !19
  store double %28, ptr %29, align 8, !tbaa !21
  br label %30

30:                                               ; preds = %25, %20
  %31 = load ptr, ptr %6, align 8, !tbaa !17
  %32 = load i8, ptr %31, align 1, !tbaa !11
  %33 = sext i8 %32 to i32
  %34 = icmp eq i32 %33, 0
  br i1 %34, label %35, label %36

35:                                               ; preds = %30
  store i32 1, ptr %3, align 4
  store i32 1, ptr %7, align 4
  br label %59

36:                                               ; preds = %30
  br label %37

37:                                               ; preds = %49, %36
  %38 = call ptr @__ctype_b_loc() #8
  %39 = load ptr, ptr %38, align 8, !tbaa !23
  %40 = load ptr, ptr %6, align 8, !tbaa !17
  %41 = load i8, ptr %40, align 1, !tbaa !11
  %42 = zext i8 %41 to i32
  %43 = sext i32 %42 to i64
  %44 = getelementptr inbounds i16, ptr %39, i64 %43
  %45 = load i16, ptr %44, align 2, !tbaa !25
  %46 = zext i16 %45 to i32
  %47 = and i32 %46, 8192
  %48 = icmp ne i32 %47, 0
  br i1 %48, label %49, label %52

49:                                               ; preds = %37
  %50 = load ptr, ptr %6, align 8, !tbaa !17
  %51 = getelementptr inbounds nuw i8, ptr %50, i32 1
  store ptr %51, ptr %6, align 8, !tbaa !17
  br label %37, !llvm.loop !27

52:                                               ; preds = %37
  %53 = load ptr, ptr %6, align 8, !tbaa !17
  %54 = load i8, ptr %53, align 1, !tbaa !11
  %55 = sext i8 %54 to i32
  %56 = icmp ne i32 %55, 0
  br i1 %56, label %57, label %58

57:                                               ; preds = %52
  store i32 0, ptr %3, align 4
  store i32 1, ptr %7, align 4
  br label %59

58:                                               ; preds = %52
  store i32 1, ptr %3, align 4
  store i32 1, ptr %7, align 4
  br label %59

59:                                               ; preds = %58, %57, %35, %14
  call void @llvm.lifetime.end.p0(i64 8, ptr %6) #7
  %60 = load i32, ptr %3, align 4
  ret i32 %60
}