; Function Attrs: nofree nounwind uwtable
define hidden range(i32 0, 2) i32 @luaO_str2d(ptr noundef %0, ptr noundef writeonly captures(none) initializes((0, 8)) %1) local_unnamed_addr #4 {
  %3 = alloca ptr, align 8
  call void @llvm.lifetime.start.p0(i64 8, ptr nonnull %3) #16
  %4 = call double @strtod(ptr noundef %0, ptr noundef nonnull %3) #16
  store double %4, ptr %1, align 8, !tbaa !13
  %5 = load ptr, ptr %3, align 8, !tbaa !15
  %6 = icmp eq ptr %5, %0
  br i1 %6, label %26, label %7

7:                                                ; preds = %2
  %8 = load i8, ptr %5, align 1, !tbaa !7
  switch i8 %8, label %12 [
    i8 120, label %9
    i8 88, label %9
  ]

9:                                                ; preds = %7, %7
  %10 = call i64 @strtoul(ptr noundef %0, ptr noundef nonnull %3, i32 noundef 16) #16
  %11 = uitofp i64 %10 to double
  store double %11, ptr %1, align 8, !tbaa !13
  %.pre = load ptr, ptr %3, align 8, !tbaa !15
  %.pre11 = load i8, ptr %.pre, align 1, !tbaa !7
  br label %12

12:                                               ; preds = %7, %9
  %13 = phi i8 [ %8, %7 ], [ %.pre11, %9 ]
  %.promoted = phi ptr [ %5, %7 ], [ %.pre, %9 ]
  %14 = icmp eq i8 %13, 0
  br i1 %14, label %26, label %.preheader

.preheader:                                       ; preds = %12
  %15 = tail call ptr @__ctype_b_loc() #17
  %16 = load ptr, ptr %15, align 8, !tbaa !18
  br label %17

17:                                               ; preds = %17, %.preheader
  %18 = phi ptr [ %.promoted, %.preheader ], [ %24, %17 ]
  %19 = load i8, ptr %18, align 1, !tbaa !7
  %20 = zext i8 %19 to i64
  %21 = getelementptr inbounds nuw i16, ptr %16, i64 %20
  %22 = load i16, ptr %21, align 2, !tbaa !20
  %23 = and i16 %22, 8192
  %.not = icmp eq i16 %23, 0
  %24 = getelementptr inbounds nuw i8, ptr %18, i64 1
  br i1 %.not, label %25, label %17, !llvm.loop !22

25:                                               ; preds = %17
  %.not8 = icmp eq i8 %19, 0
  %. = zext i1 %.not8 to i32
  br label %26

26:                                               ; preds = %25, %12, %2
  %.0 = phi i32 [ 0, %2 ], [ 1, %12 ], [ %., %25 ]
  call void @llvm.lifetime.end.p0(i64 8, ptr nonnull %3) #16
  ret i32 %.0
}